#include <math.h>
#include <stdio.h>
#include <stdlib.h>
#include <string.h>



void main()
{
	int n,i,j,length1,length2,cha;
	scanf("%d",&n);
	char beijianshu[101],jianshu[101];
	for(i=0;i<n;i++)
	{
		scanf("%s",beijianshu);
		scanf("%s",jianshu);
		length1=strlen(beijianshu);
		length2=strlen(jianshu);
		for(j=1;j<=length2;j++)
		{
			cha=beijianshu[length1-j]-jianshu[length2-j];
			if(cha>=0)
				beijianshu[length1-j]=cha+'0';
			else
			{
				beijianshu[length1-j-1]--;
				beijianshu[length1-j]=10+cha+'0';
			}
		}	
		while(beijianshu[length1-j]<'0')
		{
			beijianshu[length1-j]+=10;
			j++;
			beijianshu[length1-j]-=1;
		}

		printf("%s\n",beijianshu);
	}

}