; ModuleID = '32/423.c'
source_filename = "32/423.c"
target datalayout = "e-m:e-p270:32:32-p271:32:32-p272:64:64-i64:64-f80:128-n8:16:32:64-S128"
target triple = "x86_64-pc-linux-gnu"

@.str = private unnamed_addr constant [3 x i8] c"%d\00", align 1
@.str.1 = private unnamed_addr constant [3 x i8] c"%s\00", align 1
@.str.2 = private unnamed_addr constant [4 x i8] c"%s\0A\00", align 1

; Function Attrs: noinline nounwind uwtable
define dso_local void @main() #0 {
  %1 = alloca i32, align 4
  %2 = alloca i32, align 4
  %3 = alloca i32, align 4
  %4 = alloca i32, align 4
  %5 = alloca i32, align 4
  %6 = alloca i32, align 4
  %7 = alloca [101 x i8], align 16
  %8 = alloca [101 x i8], align 16
  %9 = call i32 (i8*, ...) @__isoc99_scanf(i8* getelementptr inbounds ([3 x i8], [3 x i8]* @.str, i64 0, i64 0), i32* %1)
  store i32 0, i32* %2, align 4
  br label %10

10:                                               ; preds = %112, %0
  %11 = load i32, i32* %2, align 4
  %12 = load i32, i32* %1, align 4
  %13 = icmp slt i32 %11, %12
  br i1 %13, label %14, label %115

14:                                               ; preds = %10
  %15 = getelementptr inbounds [101 x i8], [101 x i8]* %7, i64 0, i64 0
  %16 = call i32 (i8*, ...) @__isoc99_scanf(i8* getelementptr inbounds ([3 x i8], [3 x i8]* @.str.1, i64 0, i64 0), i8* %15)
  %17 = getelementptr inbounds [101 x i8], [101 x i8]* %8, i64 0, i64 0
  %18 = call i32 (i8*, ...) @__isoc99_scanf(i8* getelementptr inbounds ([3 x i8], [3 x i8]* @.str.1, i64 0, i64 0), i8* %17)
  %19 = getelementptr inbounds [101 x i8], [101 x i8]* %7, i64 0, i64 0
  %20 = call i64 @strlen(i8* %19) #3
  %21 = trunc i64 %20 to i32
  store i32 %21, i32* %4, align 4
  %22 = getelementptr inbounds [101 x i8], [101 x i8]* %8, i64 0, i64 0
  %23 = call i64 @strlen(i8* %22) #3
  %24 = trunc i64 %23 to i32
  store i32 %24, i32* %5, align 4
  store i32 1, i32* %3, align 4
  br label %25

25:                                               ; preds = %75, %14
  %26 = load i32, i32* %3, align 4
  %27 = load i32, i32* %5, align 4
  %28 = icmp sle i32 %26, %27
  br i1 %28, label %29, label %78

29:                                               ; preds = %25
  %30 = load i32, i32* %4, align 4
  %31 = load i32, i32* %3, align 4
  %32 = sub nsw i32 %30, %31
  %33 = sext i32 %32 to i64
  %34 = getelementptr inbounds [101 x i8], [101 x i8]* %7, i64 0, i64 %33
  %35 = load i8, i8* %34, align 1
  %36 = sext i8 %35 to i32
  %37 = load i32, i32* %5, align 4
  %38 = load i32, i32* %3, align 4
  %39 = sub nsw i32 %37, %38
  %40 = sext i32 %39 to i64
  %41 = getelementptr inbounds [101 x i8], [101 x i8]* %8, i64 0, i64 %40
  %42 = load i8, i8* %41, align 1
  %43 = sext i8 %42 to i32
  %44 = sub nsw i32 %36, %43
  store i32 %44, i32* %6, align 4
  %45 = load i32, i32* %6, align 4
  %46 = icmp sge i32 %45, 0
  br i1 %46, label %47, label %56

47:                                               ; preds = %29
  %48 = load i32, i32* %6, align 4
  %49 = add nsw i32 %48, 48
  %50 = trunc i32 %49 to i8
  %51 = load i32, i32* %4, align 4
  %52 = load i32, i32* %3, align 4
  %53 = sub nsw i32 %51, %52
  %54 = sext i32 %53 to i64
  %55 = getelementptr inbounds [101 x i8], [101 x i8]* %7, i64 0, i64 %54
  store i8 %50, i8* %55, align 1
  br label %74

56:                                               ; preds = %29
  %57 = load i32, i32* %4, align 4
  %58 = load i32, i32* %3, align 4
  %59 = sub nsw i32 %57, %58
  %60 = sub nsw i32 %59, 1
  %61 = sext i32 %60 to i64
  %62 = getelementptr inbounds [101 x i8], [101 x i8]* %7, i64 0, i64 %61
  %63 = load i8, i8* %62, align 1
  %64 = add i8 %63, -1
  store i8 %64, i8* %62, align 1
  %65 = load i32, i32* %6, align 4
  %66 = add nsw i32 10, %65
  %67 = add nsw i32 %66, 48
  %68 = trunc i32 %67 to i8
  %69 = load i32, i32* %4, align 4
  %70 = load i32, i32* %3, align 4
  %71 = sub nsw i32 %69, %70
  %72 = sext i32 %71 to i64
  %73 = getelementptr inbounds [101 x i8], [101 x i8]* %7, i64 0, i64 %72
  store i8 %68, i8* %73, align 1
  br label %74

74:                                               ; preds = %56, %47
  br label %75

75:                                               ; preds = %74
  %76 = load i32, i32* %3, align 4
  %77 = add nsw i32 %76, 1
  store i32 %77, i32* %3, align 4
  br label %25

78:                                               ; preds = %25
  br label %79

79:                                               ; preds = %88, %78
  %80 = load i32, i32* %4, align 4
  %81 = load i32, i32* %3, align 4
  %82 = sub nsw i32 %80, %81
  %83 = sext i32 %82 to i64
  %84 = getelementptr inbounds [101 x i8], [101 x i8]* %7, i64 0, i64 %83
  %85 = load i8, i8* %84, align 1
  %86 = sext i8 %85 to i32
  %87 = icmp slt i32 %86, 48
  br i1 %87, label %88, label %109

88:                                               ; preds = %79
  %89 = load i32, i32* %4, align 4
  %90 = load i32, i32* %3, align 4
  %91 = sub nsw i32 %89, %90
  %92 = sext i32 %91 to i64
  %93 = getelementptr inbounds [101 x i8], [101 x i8]* %7, i64 0, i64 %92
  %94 = load i8, i8* %93, align 1
  %95 = sext i8 %94 to i32
  %96 = add nsw i32 %95, 10
  %97 = trunc i32 %96 to i8
  store i8 %97, i8* %93, align 1
  %98 = load i32, i32* %3, align 4
  %99 = add nsw i32 %98, 1
  store i32 %99, i32* %3, align 4
  %100 = load i32, i32* %4, align 4
  %101 = load i32, i32* %3, align 4
  %102 = sub nsw i32 %100, %101
  %103 = sext i32 %102 to i64
  %104 = getelementptr inbounds [101 x i8], [101 x i8]* %7, i64 0, i64 %103
  %105 = load i8, i8* %104, align 1
  %106 = sext i8 %105 to i32
  %107 = sub nsw i32 %106, 1
  %108 = trunc i32 %107 to i8
  store i8 %108, i8* %104, align 1
  br label %79

109:                                              ; preds = %79
  %110 = getelementptr inbounds [101 x i8], [101 x i8]* %7, i64 0, i64 0
  %111 = call i32 (i8*, ...) @printf(i8* getelementptr inbounds ([4 x i8], [4 x i8]* @.str.2, i64 0, i64 0), i8* %110)
  br label %112

112:                                              ; preds = %109
  %113 = load i32, i32* %2, align 4
  %114 = add nsw i32 %113, 1
  store i32 %114, i32* %2, align 4
  br label %10

115:                                              ; preds = %10
  ret void
}

declare dso_local i32 @__isoc99_scanf(i8*, ...) #1

; Function Attrs: nounwind readonly
declare dso_local i64 @strlen(i8*) #2

declare dso_local i32 @printf(i8*, ...) #1


!llvm.module.flags = !{!0}
!llvm.ident = !{!1}

!0 = !{i32 1, !"wchar_size", i32 4}
!1 = !{!"clang version 10.0.0-4ubuntu1 "}
